; ModuleID = '7/1117.c'
source_filename = "7/1117.c"
target datalayout = "e-m:e-p270:32:32-p271:32:32-p272:64:64-i64:64-f80:128-n8:16:32:64-S128"
target triple = "x86_64-pc-linux-gnu"

@.str = private unnamed_addr constant [7 x i8] c"%s%s%s\00", align 1
@.str.1 = private unnamed_addr constant [3 x i8] c"%c\00", align 1
@.str.2 = private unnamed_addr constant [3 x i8] c"%s\00", align 1

; Function Attrs: noinline nounwind uwtable
define dso_local void @main() #0 {
  %1 = alloca [257 x i8], align 16
  %2 = alloca [257 x i8], align 16
  %3 = alloca [257 x i8], align 16
  %4 = alloca i32, align 4
  %5 = alloca i32, align 4
  %6 = alloca i32, align 4
  %7 = alloca i8*, align 8
  %8 = getelementptr inbounds [257 x i8], [257 x i8]* %1, i64 0, i64 0
  %9 = getelementptr inbounds [257 x i8], [257 x i8]* %2, i64 0, i64 0
  %10 = getelementptr inbounds [257 x i8], [257 x i8]* %3, i64 0, i64 0
  %11 = call i32 (i8*, ...) @__isoc99_scanf(i8* getelementptr inbounds ([7 x i8], [7 x i8]* @.str, i64 0, i64 0), i8* %8, i8* %9, i8* %10)
  %12 = getelementptr inbounds [257 x i8], [257 x i8]* %2, i64 0, i64 0
  %13 = call i64 @strlen(i8* %12) #3
  %14 = trunc i64 %13 to i32
  store i32 %14, i32* %5, align 4
  %15 = getelementptr inbounds [257 x i8], [257 x i8]* %1, i64 0, i64 0
  %16 = getelementptr inbounds [257 x i8], [257 x i8]* %2, i64 0, i64 0
  %17 = call i8* @strstr(i8* %15, i8* %16) #3
  store i8* %17, i8** %7, align 8
  %18 = load i8*, i8** %7, align 8
  %19 = icmp ne i8* %18, null
  br i1 %19, label %20, label %47

20:                                               ; preds = %0
  store i32 0, i32* %4, align 4
  br label %21

21:                                               ; preds = %35, %20
  %22 = getelementptr inbounds [257 x i8], [257 x i8]* %1, i64 0, i64 0
  %23 = load i32, i32* %4, align 4
  %24 = sext i32 %23 to i64
  %25 = getelementptr inbounds i8, i8* %22, i64 %24
  %26 = load i8*, i8** %7, align 8
  %27 = icmp ult i8* %25, %26
  br i1 %27, label %28, label %38

28:                                               ; preds = %21
  %29 = load i32, i32* %4, align 4
  %30 = sext i32 %29 to i64
  %31 = getelementptr inbounds [257 x i8], [257 x i8]* %1, i64 0, i64 %30
  %32 = load i8, i8* %31, align 1
  %33 = sext i8 %32 to i32
  %34 = call i32 (i8*, ...) @printf(i8* getelementptr inbounds ([3 x i8], [3 x i8]* @.str.1, i64 0, i64 0), i32 %33)
  br label %35

35:                                               ; preds = %28
  %36 = load i32, i32* %4, align 4
  %37 = add nsw i32 %36, 1
  store i32 %37, i32* %4, align 4
  br label %21

38:                                               ; preds = %21
  %39 = getelementptr inbounds [257 x i8], [257 x i8]* %3, i64 0, i64 0
  %40 = call i32 (i8*, ...) @printf(i8* getelementptr inbounds ([3 x i8], [3 x i8]* @.str.2, i64 0, i64 0), i8* %39)
  %41 = load i8*, i8** %7, align 8
  %42 = load i32, i32* %5, align 4
  %43 = sext i32 %42 to i64
  %44 = getelementptr inbounds i8, i8* %41, i64 %43
  store i8* %44, i8** %7, align 8
  %45 = load i8*, i8** %7, align 8
  %46 = call i32 (i8*, ...) @printf(i8* getelementptr inbounds ([3 x i8], [3 x i8]* @.str.2, i64 0, i64 0), i8* %45)
  br label %50

47:                                               ; preds = %0
  %48 = getelementptr inbounds [257 x i8], [257 x i8]* %1, i64 0, i64 0
  %49 = call i32 (i8*, ...) @printf(i8* getelementptr inbounds ([3 x i8], [3 x i8]* @.str.2, i64 0, i64 0), i8* %48)
  br label %50

50:                                               ; preds = %47, %38
  ret void
}

declare dso_local i32 @__isoc99_scanf(i8*, ...) #1

; Function Attrs: nounwind readonly
declare dso_local i64 @strlen(i8*) #2

; Function Attrs: nounwind readonly
declare dso_local i8* @strstr(i8*, i8*) #2

declare dso_local i32 @printf(i8*, ...) #1


!llvm.module.flags = !{!0}
!llvm.ident = !{!1}

!0 = !{i32 1, !"wchar_size", i32 4}
!1 = !{!"clang version 10.0.0-4ubuntu1 "}
